; Function Attrs: mustprogress uwtable
define noundef nonnull ptr @_ZN7xgboost3obj22PoissonRegressionParam11__MANAGER__Ev() local_unnamed_addr #4 align 2 personality ptr @__gxx_personality_v0 {
  %1 = alloca %"class.std::__cxx11::basic_string", align 8
  %2 = alloca %"class.std::allocator", align 1
  %3 = load atomic i8, ptr @_ZGVZN7xgboost3obj22PoissonRegressionParam11__MANAGER__EvE4inst acquire, align 8
  %4 = icmp eq i8 %3, 0
  br i1 %4, label %5, label %11, !prof !4

5:                                                ; preds = %0
  %6 = tail call i32 @__cxa_guard_acquire(ptr nonnull @_ZGVZN7xgboost3obj22PoissonRegressionParam11__MANAGER__EvE4inst) #15
  %.not = icmp eq i32 %6, 0
  br i1 %.not, label %11, label %7

7:                                                ; preds = %5
  call void @_ZNSaIcEC1Ev(ptr noundef nonnull align 1 dereferenceable(1) %2) #15
  invoke void @_ZNSt7__cxx1112basic_stringIcSt11char_traitsIcESaIcEEC2IS3_EEPKcRKS3_(ptr noundef nonnull align 8 dereferenceable(32) %1, ptr noundef nonnull @.str.19, ptr noundef nonnull align 1 dereferenceable(1) %2)
          to label %8 unwind label %12

8:                                                ; preds = %7
  invoke void @_ZN4dmlc9parameter21ParamManagerSingletonIN7xgboost3obj22PoissonRegressionParamEEC2ERKNSt7__cxx1112basic_stringIcSt11char_traitsIcESaIcEEE(ptr noundef nonnull align 8 dereferenceable(104) @_ZZN7xgboost3obj22PoissonRegressionParam11__MANAGER__EvE4inst, ptr noundef nonnull align 8 dereferenceable(32) %1)
          to label %9 unwind label %14

9:                                                ; preds = %8
  call void @_ZNSt7__cxx1112basic_stringIcSt11char_traitsIcESaIcEED1Ev(ptr noundef nonnull align 8 dereferenceable(32) %1) #15
  call void @_ZNSaIcED1Ev(ptr noundef nonnull align 1 dereferenceable(1) %2) #15
  %10 = call i32 @__cxa_atexit(ptr nonnull @_ZN4dmlc9parameter21ParamManagerSingletonIN7xgboost3obj22PoissonRegressionParamEED2Ev, ptr nonnull @_ZZN7xgboost3obj22PoissonRegressionParam11__MANAGER__EvE4inst, ptr nonnull @__dso_handle) #15
  call void @__cxa_guard_release(ptr nonnull @_ZGVZN7xgboost3obj22PoissonRegressionParam11__MANAGER__EvE4inst) #15
  br label %11

11:                                               ; preds = %9, %5, %0
  ret ptr @_ZZN7xgboost3obj22PoissonRegressionParam11__MANAGER__EvE4inst

12:                                               ; preds = %7
  %13 = landingpad { ptr, i32 }
          cleanup
  br label %16

14:                                               ; preds = %8
  %15 = landingpad { ptr, i32 }
          cleanup
  call void @_ZNSt7__cxx1112basic_stringIcSt11char_traitsIcESaIcEED1Ev(ptr noundef nonnull align 8 dereferenceable(32) %1) #15
  br label %16

16:                                               ; preds = %14, %12
  %.pn = phi { ptr, i32 } [ %15, %14 ], [ %13, %12 ]
  call void @_ZNSaIcED1Ev(ptr noundef nonnull align 1 dereferenceable(1) %2) #15
  call void @__cxa_guard_abort(ptr nonnull @_ZGVZN7xgboost3obj22PoissonRegressionParam11__MANAGER__EvE4inst) #15
  resume { ptr, i32 } %.pn
}